; ModuleID = 'bench/quantlib/original/dateinterval.ll'
source_filename = "bench/quantlib/original/dateinterval.ll"
target datalayout = "e-m:e-p270:32:32-p271:32:32-p272:64:64-i64:64-i128:128-f80:128-n8:16:32:64-S128"
target triple = "x86_64-unknown-linux-gnu"

%"class.QuantLib::Date" = type { i64 }

@.str = private unnamed_addr constant [21 x i8] c"Null<DateInterval>()\00", align 1
@.str.1 = private unnamed_addr constant [5 x i8] c" to \00", align 1

; Function Attrs: mustprogress uwtable
define noundef nonnull align 8 dereferenceable(8) ptr @_ZN8QuantLiblsERSoRKNS_12DateIntervalE(ptr noundef nonnull align 8 dereferenceable(8) %out, ptr noundef nonnull align 8 dereferenceable(16) %di) local_unnamed_addr #0 {
entry:
  %ref.tmp = alloca %"class.QuantLib::Date", align 8
  %ref.tmp1 = alloca %"class.QuantLib::Date", align 8
  call void @llvm.lifetime.start.p0(i64 8, ptr nonnull %ref.tmp) #3
  call void @_ZN8QuantLib4DateC1Ev(ptr noundef nonnull align 8 dereferenceable(8) %ref.tmp)
  %0 = load i64, ptr %di, align 8, !tbaa !3
  %1 = load i64, ptr %ref.tmp, align 8, !tbaa !3
  %cmp.i = icmp eq i64 %0, %1
  call void @llvm.lifetime.start.p0(i64 8, ptr nonnull %ref.tmp1) #3
  br i1 %cmp.i, label %if.then.critedge, label %lor.rhs

lor.rhs:                                          ; preds = %entry
  %endDate_ = getelementptr inbounds nuw i8, ptr %di, i64 8
  call void @_ZN8QuantLib4DateC1Ev(ptr noundef nonnull align 8 dereferenceable(8) %ref.tmp1)
  %2 = load i64, ptr %endDate_, align 8, !tbaa !3
  %3 = load i64, ptr %ref.tmp1, align 8, !tbaa !3
  %cmp.i5 = icmp eq i64 %2, %3
  call void @llvm.lifetime.end.p0(i64 8, ptr nonnull %ref.tmp1) #3
  call void @llvm.lifetime.end.p0(i64 8, ptr nonnull %ref.tmp) #3
  br i1 %cmp.i5, label %if.then, label %if.end

if.then.critedge:                                 ; preds = %entry
  call void @llvm.lifetime.end.p0(i64 8, ptr nonnull %ref.tmp1) #3
  call void @llvm.lifetime.end.p0(i64 8, ptr nonnull %ref.tmp) #3
  br label %if.then

if.then:                                          ; preds = %if.then.critedge, %lor.rhs
  %call1.i = call noundef nonnull align 8 dereferenceable(8) ptr @_ZSt16__ostream_insertIcSt11char_traitsIcEERSt13basic_ostreamIT_T0_ES6_PKS3_l(ptr noundef nonnull align 8 dereferenceable(8) %out, ptr noundef nonnull @.str, i64 noundef 20)
  br label %return

if.end:                                           ; preds = %lor.rhs
  %call5 = call noundef nonnull align 8 dereferenceable(8) ptr @_ZN8QuantLiblsERSoRKNS_4DateE(ptr noundef nonnull align 8 dereferenceable(8) %out, ptr noundef nonnull align 8 dereferenceable(8) %di)
  %call1.i7 = call noundef nonnull align 8 dereferenceable(8) ptr @_ZSt16__ostream_insertIcSt11char_traitsIcEERSt13basic_ostreamIT_T0_ES6_PKS3_l(ptr noundef nonnull align 8 dereferenceable(8) %call5, ptr noundef nonnull @.str.1, i64 noundef 4)
  %call8 = call noundef nonnull align 8 dereferenceable(8) ptr @_ZN8QuantLiblsERSoRKNS_4DateE(ptr noundef nonnull align 8 dereferenceable(8) %call5, ptr noundef nonnull align 8 dereferenceable(8) %endDate_)
  br label %return

return:                                           ; preds = %if.end, %if.then
  %retval.0 = phi ptr [ %out, %if.then ], [ %call8, %if.end ]
  ret ptr %retval.0
}

; Function Attrs: mustprogress nocallback nofree nosync nounwind willreturn memory(argmem: readwrite)
declare void @llvm.lifetime.start.p0(i64 immarg, ptr nocapture) #1

declare void @_ZN8QuantLib4DateC1Ev(ptr noundef nonnull align 8 dereferenceable(8)) unnamed_addr #2

; Function Attrs: mustprogress nocallback nofree nosync nounwind willreturn memory(argmem: readwrite)
declare void @llvm.lifetime.end.p0(i64 immarg, ptr nocapture) #1

declare noundef nonnull align 8 dereferenceable(8) ptr @_ZN8QuantLiblsERSoRKNS_4DateE(ptr noundef nonnull align 8 dereferenceable(8), ptr noundef nonnull align 8 dereferenceable(8)) local_unnamed_addr #2

declare noundef nonnull align 8 dereferenceable(8) ptr @_ZSt16__ostream_insertIcSt11char_traitsIcEERSt13basic_ostreamIT_T0_ES6_PKS3_l(ptr noundef nonnull align 8 dereferenceable(8), ptr noundef, i64 noundef) local_unnamed_addr #2


!llvm.module.flags = !{!0, !1, !2}

!0 = !{i32 1, !"wchar_size", i32 4}
!1 = !{i32 8, !"PIC Level", i32 2}
!2 = !{i32 7, !"uwtable", i32 2}
!3 = !{!4, !5, i64 0}
!4 = !{!"_ZTSN8QuantLib4DateE", !5, i64 0}
!5 = !{!"long", !6, i64 0}
!6 = !{!"omnipotent char", !7, i64 0}
!7 = !{!"Simple C++ TBAA"}
